; Function Attrs: nounwind uwtable
define noalias nonnull ptr @l_Lean_Elab_Tactic_BVDecide_Frontend_Normalize_isSupportedMatch_verifySimpleCasesOnApp___lambda__2(ptr noundef readonly captures(none) %0, ptr noundef readonly captures(none) %1, ptr noundef %2, ptr noundef readnone captures(none) %3, ptr noundef readnone captures(none) %4, ptr noundef readnone captures(none) %5, ptr noundef readnone captures(none) %6, ptr noundef %7) local_unnamed_addr #1 {
lean_dec.exit:
  %8 = getelementptr i8, ptr %1, i64 8
  %.val = load i64, ptr %8, align 8, !tbaa !12
  %.mask = and i64 %.val, 9223372036854775807
  %.not = icmp eq i64 %.mask, 1
  br i1 %.not, label %16, label %9

9:                                                ; preds = %lean_dec.exit
  tail call void @lean_inc_heartbeat() #4
  %10 = tail call noalias ptr @mi_malloc_small(i64 noundef 24) #4
  %11 = icmp eq ptr %10, null
  br i1 %11, label %12, label %lean_alloc_ctor.exit

12:                                               ; preds = %9
  tail call void @lean_internal_panic_out_of_memory() #5
  unreachable

lean_alloc_ctor.exit:                             ; preds = %9
  %13 = getelementptr inbounds nuw i8, ptr %10, i64 4
  store i32 1, ptr %10, align 4, !tbaa !8
  store i32 131096, ptr %13, align 4
  %14 = getelementptr inbounds nuw i8, ptr %10, i64 8
  store ptr inttoptr (i64 1 to ptr), ptr %14, align 8, !tbaa !4
  %15 = getelementptr inbounds nuw i8, ptr %10, i64 16
  store ptr %7, ptr %15, align 8, !tbaa !4
  br label %18

16:                                               ; preds = %lean_dec.exit
  %17 = tail call ptr @l_Lean_Elab_Tactic_BVDecide_Frontend_Normalize_isSupportedMatch_verifySimpleCasesOnApp___lambda__1(ptr noundef %2, ptr noundef nonnull %1, ptr noundef %0, ptr nonnull poison, ptr poison, ptr poison, ptr poison, ptr poison, ptr noundef %7)
  br label %18

18:                                               ; preds = %16, %lean_alloc_ctor.exit
  %.0 = phi ptr [ %10, %lean_alloc_ctor.exit ], [ %17, %16 ]
  ret ptr %.0
}